Certificate:
    Data:
        Version: 3 (0x2)
        Serial Number: 2 (0x2)
        Signature Algorithm: sha256WithRSAEncryption
        Issuer: C=JP, ST=Hokkaido, L=Shibetsu, O=rootCA, OU=rootCA, CN=Root CA
        Validity
            Not Before: Nov 23 11:08:41 2025 GMT
            Not After : Oct 30 11:08:41 2125 GMT
        Subject: C=JP, ST=Tokyo, O=interCA, OU=interCA, CN=Inter CA
        Subject Public Key Info:
            Public Key Algorithm: rsaEncryption
                Public-Key: (2048 bit)
                Modulus:
                    00:ca:4c:60:93:8d:41:64:86:25:08:65:c8:01:04:
                    02:10:3f:91:3a:eb:f4:68:a1:cd:8b:b2:ac:fc:ff:
                    fc:bb:59:a2:d0:22:47:38:9c:60:48:1f:5b:7c:38:
                    6d:86:c9:2c:f9:49:ab:df:22:f1:25:38:86:79:ec:
                    5f:ed:11:7e:13:fd:32:b9:2f:cc:ad:9e:52:7c:34:
                    c6:17:ea:26:45:c4:da:ab:cd:34:b1:3f:4c:ee:ec:
                    a5:5e:18:1b:8d:a6:68:69:4f:17:27:17:be:a4:94:
                    2f:c4:59:d8:e0:e8:0b:ec:79:0f:52:c3:fb:6f:d9:
                    a2:73:d0:a7:1b:3f:a1:3a:b5:cb:fd:79:c9:b2:4f:
                    cd:75:60:52:3a:5b:52:26:06:30:99:58:4c:7f:6b:
                    cc:5b:a7:85:c5:98:36:93:76:08:1d:9c:17:86:1a:
                    38:54:a1:4b:98:2a:ed:72:cb:23:f9:2b:08:8d:02:
                    4b:86:4c:dd:0a:c2:40:38:89:bc:f7:bb:8e:e6:40:
                    60:13:88:9c:6f:66:41:b4:87:9f:38:6f:d4:41:69:
                    af:00:4f:2e:98:aa:27:4c:db:98:06:e8:f1:3f:ed:
                    8c:3d:c4:61:c6:ea:c9:ea:dd:8b:69:93:81:e9:8e:
                    19:f1:29:6b:7c:56:18:23:b3:17:9a:b0:9f:28:d3:
                    a6:e5
                Exponent: 65537 (0x10001)
        X509v3 extensions:
            X509v3 Subject Key Identifier: 
                84:24:39:D7:BD:89:0C:7C:F1:58:25:D7:38:B7:37:34:43:1D:83:29
            X509v3 Basic Constraints: critical
                CA:TRUE, pathlen:0
            X509v3 Authority Key Identifier: 
                B5:4D:0B:70:D6:D7:1A:1B:42:5C:5C:97:61:87:ED:FC:DD:29:06:15
    Signature Algorithm: sha256WithRSAEncryption
    Signature Value:
        aa:77:d6:f0:41:36:ba:1d:91:90:46:40:49:cd:cf:bc:d7:20:
        56:fb:4c:92:64:ef:f7:55:f1:7a:9b:80:79:0c:91:2b:d2:5b:
        e4:b5:ff:c8:9f:bc:af:a7:7b:9e:80:19:09:f9:6d:b9:f7:ad:
        ab:12:f9:d2:65:d3:8a:ca:ba:76:1e:e2:65:45:44:b8:b9:0e:
        d0:0f:ab:aa:24:e6:af:97:fa:ae:33:7d:62:77:52:85:66:80:
        7f:cb:d5:b3:66:85:84:50:5e:91:9c:10:37:68:de:a8:9f:0f:
        3f:95:24:3d:58:a8:3c:d8:a7:00:64:ee:20:56:45:62:60:45:
        3e:ee:df:7c:60:1a:0a:29:fd:3e:d7:ae:e8:e3:de:3d:d5:18:
        a4:6e:19:5e:c8:18:8d:fc:77:2c:47:49:e7:1d:ca:8d:ad:ee:
        f6:a0:75:e3:bc:ac:d0:d5:22:46:b2:4b:5b:56:00:0c:ba:4c:
        24:40:23:53:35:2c:a9:f3:82:7c:58:e5:48:bb:88:36:2b:8f:
        b9:3f:c2:24:37:99:dd:f9:7e:12:78:6c:a4:47:3a:71:46:5f:
        7c:c5:2c:bd:c1:15:52:9d:95:22:d5:64:60:83:73:34:35:cb:
        c9:c3:ba:f1:3a:77:62:e2:4a:67:f2:51:24:c6:af:52:1b:94:
        57:fa:05:52
-----BEGIN CERTIFICATE-----
MIIDjjCCAnagAwIBAgIBAjANBgkqhkiG9w0BAQsFADBnMQswCQYDVQQGEwJKUDER
MA8GA1UECAwISG9ra2FpZG8xETAPBgNVBAcMCFNoaWJldHN1MQ8wDQYDVQQKDAZy
b290Q0ExDzANBgNVBAsMBnJvb3RDQTEQMA4GA1UEAwwHUm9vdCBDQTAgFw0yNTEx
MjMxMTA4NDFaGA8yMTI1MTAzMDExMDg0MVowVDELMAkGA1UEBhMCSlAxDjAMBgNV
BAgMBVRva3lvMRAwDgYDVQQKDAdpbnRlckNBMRAwDgYDVQQLDAdpbnRlckNBMREw
DwYDVQQDDAhJbnRlciBDQTCCASIwDQYJKoZIhvcNAQEBBQADggEPADCCAQoCggEB
AMpMYJONQWSGJQhlyAEEAhA/kTrr9GihzYuyrPz//LtZotAiRzicYEgfW3w4bYbJ
LPlJq98i8SU4hnnsX+0RfhP9MrkvzK2eUnw0xhfqJkXE2qvNNLE/TO7spV4YG42m
aGlPFycXvqSUL8RZ2ODoC+x5D1LD+2/ZonPQpxs/oTq1y/15ybJPzXVgUjpbUiYG
MJlYTH9rzFunhcWYNpN2CB2cF4YaOFShS5gq7XLLI/krCI0CS4ZM3QrCQDiJvPe7
juZAYBOInG9mQbSHnzhv1EFprwBPLpiqJ0zbmAbo8T/tjD3EYcbqyerdi2mTgemO
GfEpa3xWGCOzF5qwnyjTpuUCAwEAAaNWMFQwHQYDVR0OBBYEFIQkOde9iQx88Vgl
1zi3NzRDHYMpMBIGA1UdEwEB/wQIMAYBAf8CAQAwHwYDVR0jBBgwFoAUtU0LcNbX
GhtCXFyXYYft/N0pBhUwDQYJKoZIhvcNAQELBQADggEBAKp31vBBNrodkZBGQEnN
z7zXIFb7TJJk7/dV8XqbgHkMkSvSW+S1/8ifvK+ne56AGQn5bbn3rasS+dJl04rK
unYe4mVFRLi5DtAPq6ok5q+X+q4zfWJ3UoVmgH/L1bNmhYRQXpGcEDdo3qifDz+V
JD1YqDzYpwBk7iBWRWJgRT7u33xgGgop/T7Xrujj3j3VGKRuGV7IGI38dyxHSecd
yo2t7vagdeO8rNDVIkayS1tWAAy6TCRAI1M1LKnzgnxY5Ui7iDYrj7k/wiQ3md35
fhJ4bKRHOnFGX3zFLL3BFVKdlSLVZGCDczQ1y8nDuvE6d2LiSmfyUSTGr1IblFf6
BVI=
-----END CERTIFICATE-----
-----BEGIN CERTIFICATE-----
MIIDkDCCAnigAwIBAgIUeSrA0fOswYUX8n/d5/ucZN3NqAkwDQYJKoZIhvcNAQEL
BQAwZzELMAkGA1UEBhMCSlAxETAPBgNVBAgMCEhva2thaWRvMREwDwYDVQQHDAhT
aGliZXRzdTEPMA0GA1UECgwGcm9vdENBMQ8wDQYDVQQLDAZyb290Q0ExEDAOBgNV
BAMMB1Jvb3QgQ0EwIBcNMjQwMjEyMTE1NzU4WhgPMjEyNDAxMTkxMTU3NThaMGcx
CzAJBgNVBAYTAkpQMREwDwYDVQQIDAhIb2trYWlkbzERMA8GA1UEBwwIU2hpYmV0
c3UxDzANBgNVBAoMBnJvb3RDQTEPMA0GA1UECwwGcm9vdENBMRAwDgYDVQQDDAdS
b290IENBMIIBIjANBgkqhkiG9w0BAQEFAAOCAQ8AMIIBCgKCAQEAuaAT0qodHI5O
pYlAWTk2UlT2v17CgpeEvjfDTJEwfI5NlIELW9o/vS7tgjjowfFnthsdaMDuvMlx
AUEMnw1/Vpd1A6Gph6VkaB421TRDdSu8mp8PnrXtJV2wSYlo93ewz2x9b0HEbwbd
srS32XdaIyKeqUlhFG9XM4IR1T/lu7zHX7YyS/9idQ/elSn5UNRmhaymRvx9YQ+Y
kdGmFPCeyFx3PLo6uQp7VexLRAXwo+Zeg2yL/XOceNKC9WPtM9Jlb16YlayMlgE7
Qm+Y8RWbjlt68xVjOHg4FsDypbXN6Jg7f4R5PwZnIDMo6oXHjiAUq0FRtiyBnt3M
vHmZEDjSOQIDAQABozIwMDAdBgNVHQ4EFgQUtU0LcNbXGhtCXFyXYYft/N0pBhUw
DwYDVR0TAQH/BAUwAwEB/zANBgkqhkiG9w0BAQsFAAOCAQEAI15OOqWvZKxWKvJm
NKI5fI99X5oBjeO6dCvOFq29L5JCk5vMnIyimXenlS0zC5qk5fDj4c+paGkqI918
T18TH5Rx5/Etvs0jFYGF+eyxpYm1xQjEPKonVVYfAS7FY5F3xdtNHJu8TfbXSz4R
fyB1+uoeiCCBi2A94DAVDUrN28xKM7NZ/xZ9wm6hlXGu0por3zbGrqIdsoju8pyp
E2zE+hV3nVfPHIc/Jr6BLG++Bmrkh2TvoPZmft/prrnP6oIKjWkLi4WiKrDz+a/0
YFwKjH+gpDlYqLQIX9tt1PlCYfVxMiEobzaI2OFok7CXN+sz8nH/riM5hNKcSpdk
08J0cQ==
-----END CERTIFICATE-----
