Certificate:
    Data:
        Version: 3 (0x2)
        Serial Number: 2 (0x2)
        Signature Algorithm: sha256WithRSAEncryption
        Issuer: C=JP, ST=Tokyo, O=interCA, OU=interCA, CN=Inter CA
        Validity
            Not Before: Nov 23 11:18:06 2025 GMT
            Not After : Nov 23 11:18:06 2026 GMT
        Subject: C=JP, ST=Tokyo, O=client, OU=client, CN=test
        Subject Public Key Info:
            Public Key Algorithm: rsaEncryption
                Public-Key: (2048 bit)
                Modulus:
                    00:cb:76:90:43:f6:de:88:68:0a:15:9b:06:d2:ad:
                    72:79:78:a7:44:a4:ce:94:ae:5f:cf:b1:5e:f7:93:
                    1f:e4:1b:ce:e3:92:3d:e5:42:ef:eb:69:ae:f2:20:
                    d8:d6:01:c4:64:2d:c6:24:91:87:af:67:46:98:3c:
                    8f:d5:48:ee:03:75:d0:44:d5:ed:c6:32:6c:40:d2:
                    90:e1:50:25:f9:e3:9d:29:4c:dd:de:85:9f:74:5c:
                    0f:28:ff:a9:09:8b:fe:9d:ae:67:c5:aa:1e:46:75:
                    35:04:66:73:cf:5d:ea:12:01:c5:ae:72:04:79:23:
                    43:37:c3:cf:74:6d:cd:92:f6:3a:7e:0e:e0:d8:d9:
                    93:a0:de:41:76:4a:d7:16:a4:cd:6b:9f:2d:6f:bb:
                    cd:4c:d3:71:f9:e8:71:fb:b5:48:b5:66:f7:c4:14:
                    44:e1:a9:9a:b6:1c:7b:48:76:6c:ac:13:41:51:5b:
                    c0:4e:44:de:30:d1:0e:06:6e:6e:cf:24:e1:f0:ae:
                    43:18:81:f5:37:9e:6e:24:6f:ff:f3:1c:81:17:8b:
                    9d:b8:6c:bd:6a:be:ae:eb:82:3a:e5:a1:4e:25:90:
                    1c:37:aa:28:04:ae:46:7a:97:79:8d:e3:d9:1b:06:
                    a8:75:e0:a0:3f:f9:e5:be:ff:ac:20:99:a6:ea:97:
                    ad:d5
                Exponent: 65537 (0x10001)
        X509v3 extensions:
            X509v3 Subject Key Identifier: 
                39:63:9C:C4:EA:FA:E9:0F:93:86:82:5F:05:7D:A0:E7:0B:9F:78:0B
            X509v3 Authority Key Identifier: 
                84:24:39:D7:BD:89:0C:7C:F1:58:25:D7:38:B7:37:34:43:1D:83:29
    Signature Algorithm: sha256WithRSAEncryption
    Signature Value:
        13:a1:06:40:d2:c9:ad:a0:05:ce:85:a0:af:ea:7a:10:f9:1b:
        e7:39:9d:fb:59:7d:29:b6:70:4e:61:32:96:1d:9f:e4:9c:52:
        3d:6d:9d:0e:e3:70:52:9d:a1:17:e0:7c:f2:96:af:4c:e1:a8:
        38:4a:5c:fb:5a:09:37:ea:8f:06:c4:ac:84:16:35:cc:ce:a1:
        0d:f3:2a:0b:76:ba:48:a7:90:28:4c:08:a7:dc:0e:5f:16:1a:
        3b:36:14:75:52:db:a7:20:27:3a:68:f5:dc:df:48:63:2b:6a:
        23:40:09:a2:1c:1b:f2:bb:16:8b:18:f3:8d:d0:9c:31:c7:52:
        e8:a2:7f:92:16:68:8b:07:d2:cb:69:69:1e:f7:0e:cb:4e:42:
        d9:e6:74:c7:dd:de:7e:ff:85:5e:1a:ce:4c:9f:20:59:e6:9b:
        32:7e:41:dc:f5:18:24:77:83:2b:07:ec:73:5d:cd:6b:91:3c:
        ef:98:8b:f8:f9:eb:29:fd:f8:71:78:1f:3d:f0:9f:ca:3b:1b:
        7f:1a:87:20:25:de:46:99:f9:f1:3f:c7:fa:0f:c7:71:65:e5:
        97:ea:ab:e5:e5:54:da:85:98:27:47:e3:2d:b9:54:67:31:0d:
        71:11:a2:30:71:42:bb:2d:37:29:39:a3:6e:5f:a7:c3:24:e1:
        07:cb:f4:74
-----BEGIN CERTIFICATE-----
MIIDXzCCAkegAwIBAgIBAjANBgkqhkiG9w0BAQsFADBUMQswCQYDVQQGEwJKUDEO
MAwGA1UECAwFVG9reW8xEDAOBgNVBAoMB2ludGVyQ0ExEDAOBgNVBAsMB2ludGVy
Q0ExETAPBgNVBAMMCEludGVyIENBMB4XDTI1MTEyMzExMTgwNloXDTI2MTEyMzEx
MTgwNlowTjELMAkGA1UEBhMCSlAxDjAMBgNVBAgMBVRva3lvMQ8wDQYDVQQKDAZj
bGllbnQxDzANBgNVBAsMBmNsaWVudDENMAsGA1UEAwwEdGVzdDCCASIwDQYJKoZI
hvcNAQEBBQADggEPADCCAQoCggEBAMt2kEP23ohoChWbBtKtcnl4p0SkzpSuX8+x
XveTH+QbzuOSPeVC7+tprvIg2NYBxGQtxiSRh69nRpg8j9VI7gN10ETV7cYybEDS
kOFQJfnjnSlM3d6Fn3RcDyj/qQmL/p2uZ8WqHkZ1NQRmc89d6hIBxa5yBHkjQzfD
z3RtzZL2On4O4NjZk6DeQXZK1xakzWufLW+7zUzTcfnocfu1SLVm98QUROGpmrYc
e0h2bKwTQVFbwE5E3jDRDgZubs8k4fCuQxiB9TeebiRv//McgReLnbhsvWq+ruuC
OuWhTiWQHDeqKASuRnqXeY3j2RsGqHXgoD/55b7/rCCZpuqXrdUCAwEAAaNCMEAw
HQYDVR0OBBYEFDljnMTq+ukPk4aCXwV9oOcLn3gLMB8GA1UdIwQYMBaAFIQkOde9
iQx88Vgl1zi3NzRDHYMpMA0GCSqGSIb3DQEBCwUAA4IBAQAToQZA0smtoAXOhaCv
6noQ+RvnOZ37WX0ptnBOYTKWHZ/knFI9bZ0O43BSnaEX4Hzylq9M4ag4Slz7Wgk3
6o8GxKyEFjXMzqEN8yoLdrpIp5AoTAin3A5fFho7NhR1UtunICc6aPXc30hjK2oj
QAmiHBvyuxaLGPON0Jwxx1Loon+SFmiLB9LLaWke9w7LTkLZ5nTH3d5+/4VeGs5M
nyBZ5psyfkHc9Rgkd4MrB+xzXc1rkTzvmIv4+esp/fhxeB898J/KOxt/GocgJd5G
mfnxP8f6D8dxZeWX6qvl5VTahZgnR+MtuVRnMQ1xEaIwcUK7LTcpOaNuX6fDJOEH
y/R0
-----END CERTIFICATE-----
