Certificate:
    Data:
        Version: 3 (0x2)
        Serial Number: 1 (0x1)
        Signature Algorithm: sha256WithRSAEncryption
        Issuer: C=JP, ST=Hokkaido, L=Shibetsu, O=rootCA, OU=rootCA, CN=Root CA
        Validity
            Not Before: Feb 12 11:58:36 2024 GMT
            Not After : Feb 11 11:58:36 2025 GMT
        Subject: C=JP, ST=Hokkaido, O=interCA, OU=interCA, CN=Inter CA
        Subject Public Key Info:
            Public Key Algorithm: rsaEncryption
                Public-Key: (2048 bit)
                Modulus:
                    00:c4:29:a3:ea:37:4c:db:eb:12:61:28:07:11:f5:
                    cb:ba:7c:b4:36:a7:60:83:07:e5:23:8d:fa:a8:a3:
                    9f:06:4e:ef:f8:8b:09:32:1f:77:00:b6:8d:28:bd:
                    a3:8d:cf:2e:2a:d5:8c:91:82:b9:f7:a8:ae:49:d2:
                    61:20:26:ab:2f:15:32:ee:71:ae:61:81:58:d8:15:
                    06:d7:fc:dc:d8:86:f1:93:ad:6e:ea:0d:86:0b:d9:
                    7e:66:94:c1:12:25:16:5a:ce:60:79:8b:b7:a9:78:
                    90:d1:ab:a1:33:1a:52:8f:b3:3b:d8:d4:16:32:98:
                    a7:0d:c2:c6:ba:b3:74:66:bb:01:da:0e:9f:68:5a:
                    c0:6f:5e:04:f3:ab:ac:58:c7:89:f2:9b:f7:6f:7a:
                    ca:a7:68:d2:a3:92:0f:2c:72:71:71:21:21:32:62:
                    2a:35:f4:37:e9:c2:5c:66:39:31:b3:17:13:9a:01:
                    ab:46:31:74:c3:8b:0c:78:91:e0:58:07:7a:f8:29:
                    83:75:28:e8:20:cf:07:56:6d:7e:58:cb:96:ef:81:
                    4d:88:b5:fe:59:dc:fc:54:b9:93:0a:f8:16:3d:f3:
                    b0:19:5c:69:fe:ce:c6:de:93:a6:5c:08:4d:4a:11:
                    99:88:82:38:cc:70:58:40:d9:3e:28:41:be:dd:1e:
                    bf:53
                Exponent: 65537 (0x10001)
        X509v3 extensions:
            X509v3 Subject Key Identifier: 
                82:61:08:2E:BD:2F:40:2E:29:19:CB:AB:F6:C3:46:12:31:A5:88:6F
            X509v3 Basic Constraints: critical
                CA:TRUE, pathlen:0
            X509v3 Authority Key Identifier: 
                B5:4D:0B:70:D6:D7:1A:1B:42:5C:5C:97:61:87:ED:FC:DD:29:06:15
    Signature Algorithm: sha256WithRSAEncryption
    Signature Value:
        6d:5e:85:0f:c5:e4:b3:e2:e4:97:55:21:d9:2a:9e:0e:20:ca:
        a5:8a:97:03:75:6e:29:8b:2b:86:9d:3c:cc:78:16:a0:b2:93:
        ba:b1:a4:24:52:3e:7b:14:1e:c7:64:04:eb:41:24:bd:63:c8:
        e0:97:67:a5:61:79:0c:50:23:16:b2:ed:98:d7:27:c9:23:69:
        bd:70:3b:fe:03:84:76:ac:bc:ae:e0:ea:76:28:3f:de:ef:32:
        c5:48:fe:9a:0f:a1:17:da:ea:60:72:22:e3:aa:e1:c5:67:83:
        a9:2f:c8:b0:bf:06:78:15:a7:bc:35:3e:2c:e9:2a:c3:00:c4:
        38:8f:ad:2c:4c:57:3b:b8:32:95:86:73:7f:43:26:7a:d9:bd:
        40:e1:8f:3e:db:5c:dd:6b:24:37:f6:df:4c:92:68:7e:0a:20:
        b1:6e:7a:ff:59:59:76:c9:87:da:a1:4b:04:9a:5b:a9:10:5a:
        e6:7f:d8:86:bd:cf:82:06:9d:fa:7f:08:e5:f8:4d:f8:c8:b3:
        fd:7a:9b:0f:37:2c:5d:9d:a0:d6:90:92:4e:80:47:98:da:92:
        e8:a7:86:38:86:3d:99:1a:f9:8c:6f:e0:02:d7:c6:86:35:f4:
        5c:4b:9b:4b:b7:98:92:af:6b:d2:cf:a5:cc:c1:52:70:1b:77:
        39:a2:8f:73
-----BEGIN CERTIFICATE-----
MIIDjzCCAnegAwIBAgIBATANBgkqhkiG9w0BAQsFADBnMQswCQYDVQQGEwJKUDER
MA8GA1UECAwISG9ra2FpZG8xETAPBgNVBAcMCFNoaWJldHN1MQ8wDQYDVQQKDAZy
b290Q0ExDzANBgNVBAsMBnJvb3RDQTEQMA4GA1UEAwwHUm9vdCBDQTAeFw0yNDAy
MTIxMTU4MzZaFw0yNTAyMTExMTU4MzZaMFcxCzAJBgNVBAYTAkpQMREwDwYDVQQI
DAhIb2trYWlkbzEQMA4GA1UECgwHaW50ZXJDQTEQMA4GA1UECwwHaW50ZXJDQTER
MA8GA1UEAwwISW50ZXIgQ0EwggEiMA0GCSqGSIb3DQEBAQUAA4IBDwAwggEKAoIB
AQDEKaPqN0zb6xJhKAcR9cu6fLQ2p2CDB+Ujjfqoo58GTu/4iwkyH3cAto0ovaON
zy4q1YyRgrn3qK5J0mEgJqsvFTLuca5hgVjYFQbX/NzYhvGTrW7qDYYL2X5mlMES
JRZazmB5i7epeJDRq6EzGlKPszvY1BYymKcNwsa6s3RmuwHaDp9oWsBvXgTzq6xY
x4nym/dvesqnaNKjkg8scnFxISEyYio19DfpwlxmOTGzFxOaAatGMXTDiwx4keBY
B3r4KYN1KOggzwdWbX5Yy5bvgU2Itf5Z3PxUuZMK+BY987AZXGn+zsbek6ZcCE1K
EZmIgjjMcFhA2T4oQb7dHr9TAgMBAAGjVjBUMB0GA1UdDgQWBBSCYQguvS9ALikZ
y6v2w0YSMaWIbzASBgNVHRMBAf8ECDAGAQH/AgEAMB8GA1UdIwQYMBaAFLVNC3DW
1xobQlxcl2GH7fzdKQYVMA0GCSqGSIb3DQEBCwUAA4IBAQBtXoUPxeSz4uSXVSHZ
Kp4OIMqlipcDdW4piyuGnTzMeBagspO6saQkUj57FB7HZATrQSS9Y8jgl2elYXkM
UCMWsu2Y1yfJI2m9cDv+A4R2rLyu4Op2KD/e7zLFSP6aD6EX2upgciLjquHFZ4Op
L8iwvwZ4Fae8NT4s6SrDAMQ4j60sTFc7uDKVhnN/QyZ62b1A4Y8+21zdayQ39t9M
kmh+CiCxbnr/WVl2yYfaoUsEmlupEFrmf9iGvc+CBp36fwjl+E34yLP9epsPNyxd
naDWkJJOgEeY2pLop4Y4hj2ZGvmMb+AC18aGNfRcS5tLt5iSr2vSz6XMwVJwG3c5
oo9z
-----END CERTIFICATE-----
-----BEGIN CERTIFICATE-----
MIIDkDCCAnigAwIBAgIUeSrA0fOswYUX8n/d5/ucZN3NqAkwDQYJKoZIhvcNAQEL
BQAwZzELMAkGA1UEBhMCSlAxETAPBgNVBAgMCEhva2thaWRvMREwDwYDVQQHDAhT
aGliZXRzdTEPMA0GA1UECgwGcm9vdENBMQ8wDQYDVQQLDAZyb290Q0ExEDAOBgNV
BAMMB1Jvb3QgQ0EwIBcNMjQwMjEyMTE1NzU4WhgPMjEyNDAxMTkxMTU3NThaMGcx
CzAJBgNVBAYTAkpQMREwDwYDVQQIDAhIb2trYWlkbzERMA8GA1UEBwwIU2hpYmV0
c3UxDzANBgNVBAoMBnJvb3RDQTEPMA0GA1UECwwGcm9vdENBMRAwDgYDVQQDDAdS
b290IENBMIIBIjANBgkqhkiG9w0BAQEFAAOCAQ8AMIIBCgKCAQEAuaAT0qodHI5O
pYlAWTk2UlT2v17CgpeEvjfDTJEwfI5NlIELW9o/vS7tgjjowfFnthsdaMDuvMlx
AUEMnw1/Vpd1A6Gph6VkaB421TRDdSu8mp8PnrXtJV2wSYlo93ewz2x9b0HEbwbd
srS32XdaIyKeqUlhFG9XM4IR1T/lu7zHX7YyS/9idQ/elSn5UNRmhaymRvx9YQ+Y
kdGmFPCeyFx3PLo6uQp7VexLRAXwo+Zeg2yL/XOceNKC9WPtM9Jlb16YlayMlgE7
Qm+Y8RWbjlt68xVjOHg4FsDypbXN6Jg7f4R5PwZnIDMo6oXHjiAUq0FRtiyBnt3M
vHmZEDjSOQIDAQABozIwMDAdBgNVHQ4EFgQUtU0LcNbXGhtCXFyXYYft/N0pBhUw
DwYDVR0TAQH/BAUwAwEB/zANBgkqhkiG9w0BAQsFAAOCAQEAI15OOqWvZKxWKvJm
NKI5fI99X5oBjeO6dCvOFq29L5JCk5vMnIyimXenlS0zC5qk5fDj4c+paGkqI918
T18TH5Rx5/Etvs0jFYGF+eyxpYm1xQjEPKonVVYfAS7FY5F3xdtNHJu8TfbXSz4R
fyB1+uoeiCCBi2A94DAVDUrN28xKM7NZ/xZ9wm6hlXGu0por3zbGrqIdsoju8pyp
E2zE+hV3nVfPHIc/Jr6BLG++Bmrkh2TvoPZmft/prrnP6oIKjWkLi4WiKrDz+a/0
YFwKjH+gpDlYqLQIX9tt1PlCYfVxMiEobzaI2OFok7CXN+sz8nH/riM5hNKcSpdk
08J0cQ==
-----END CERTIFICATE-----
