Certificate:
    Data:
        Version: 3 (0x2)
        Serial Number: 1 (0x1)
        Signature Algorithm: sha256WithRSAEncryption
        Issuer: C=JP, ST=Hokkaido, O=interCA, OU=interCA, CN=Inter CA
        Validity
            Not Before: Feb 12 12:08:38 2024 GMT
            Not After : Feb 11 12:08:38 2025 GMT
        Subject: C=JP, ST=Tokyo, O=server, OU=server, CN=localhost
        Subject Public Key Info:
            Public Key Algorithm: rsaEncryption
                Public-Key: (2048 bit)
                Modulus:
                    00:b3:d8:2a:f6:cc:a0:be:64:44:70:f3:65:7a:1c:
                    d0:bc:12:3f:55:61:45:44:07:44:9a:80:3d:e0:a3:
                    dc:e2:06:6f:6c:72:f5:c7:45:12:83:03:55:11:60:
                    69:a4:af:8b:4f:00:d1:7f:2c:89:64:63:40:b7:8f:
                    cd:20:1c:5f:86:d3:d7:36:e7:d4:35:f1:d0:3c:8e:
                    a9:bb:08:67:1a:a7:5d:0c:3f:d9:7e:35:e8:4d:d0:
                    13:e5:93:03:d6:58:3c:fe:45:0d:c7:20:c2:70:5e:
                    8c:b2:88:1f:3f:84:02:59:c5:ee:59:18:01:71:5f:
                    43:ae:af:51:eb:20:f1:77:12:2b:06:ce:34:9d:3f:
                    3c:b3:17:ab:0b:20:40:81:ff:a1:55:15:13:63:15:
                    e8:04:59:9d:5e:92:1e:2e:c0:49:1a:a5:1d:98:a8:
                    39:d3:8b:9c:c7:a1:64:87:ae:7b:ce:95:9d:e9:f1:
                    96:52:fd:62:29:a0:cc:74:6b:51:b1:de:fd:de:6d:
                    da:00:94:5a:f1:b8:75:b1:1d:c6:47:56:75:28:6c:
                    1e:d1:d9:99:48:6d:98:35:ba:d2:32:58:a6:b0:6d:
                    8c:8c:0c:d1:e3:3b:64:8f:e0:61:cc:ff:56:11:95:
                    9b:c3:f4:6d:4b:ac:94:3f:56:1c:e2:d6:25:14:5f:
                    f8:57
                Exponent: 65537 (0x10001)
        X509v3 extensions:
            X509v3 Subject Key Identifier: 
                C4:39:26:C8:98:36:11:FC:7E:E5:00:39:2B:C5:BD:12:52:01:48:A1
            X509v3 Authority Key Identifier: 
                82:61:08:2E:BD:2F:40:2E:29:19:CB:AB:F6:C3:46:12:31:A5:88:6F
    Signature Algorithm: sha256WithRSAEncryption
    Signature Value:
        1b:68:14:40:9c:09:97:9f:e4:e7:de:e9:8b:15:fd:cb:bb:25:
        86:eb:71:ea:3d:7e:9d:39:97:03:15:46:8b:17:39:53:5b:2d:
        9d:d6:2b:be:f9:40:ba:5f:82:1e:b6:df:ce:34:09:36:75:87:
        f1:84:fc:69:a6:76:45:3c:9a:04:8d:36:10:0f:1e:94:16:81:
        37:e2:57:aa:d3:f3:4d:65:e0:93:d5:c5:2b:fe:68:87:a7:46:
        99:bf:98:e6:11:95:6c:34:cd:54:fa:57:1e:80:d4:46:ea:c1:
        04:2a:df:89:e9:e7:e5:d4:13:f3:4a:30:da:65:6c:16:99:07:
        4a:f0:72:86:23:e0:ec:a1:9c:7a:ee:a6:2c:3d:82:c1:25:64:
        f8:e8:fc:4f:a0:4c:89:bc:2f:73:b0:91:6d:23:63:4c:ce:42:
        6f:05:76:ad:ab:d9:75:cc:15:ed:a2:91:c1:58:3e:c1:c6:d9:
        c5:01:79:b0:ef:c6:4d:8b:38:dc:f3:5f:8d:49:99:ca:11:86:
        1e:fa:f5:af:cb:05:fb:33:e7:e6:21:83:e5:c7:f1:18:b1:85:
        51:7f:d8:b8:f3:a8:77:2f:d4:10:69:49:36:4b:f9:f5:df:e0:
        b0:4c:f2:5e:c1:27:58:8d:7e:02:d5:88:43:2c:9f:fc:2a:5c:
        f0:fe:c4:77
-----BEGIN CERTIFICATE-----
MIIDZzCCAk+gAwIBAgIBATANBgkqhkiG9w0BAQsFADBXMQswCQYDVQQGEwJKUDER
MA8GA1UECAwISG9ra2FpZG8xEDAOBgNVBAoMB2ludGVyQ0ExEDAOBgNVBAsMB2lu
dGVyQ0ExETAPBgNVBAMMCEludGVyIENBMB4XDTI0MDIxMjEyMDgzOFoXDTI1MDIx
MTEyMDgzOFowUzELMAkGA1UEBhMCSlAxDjAMBgNVBAgMBVRva3lvMQ8wDQYDVQQK
DAZzZXJ2ZXIxDzANBgNVBAsMBnNlcnZlcjESMBAGA1UEAwwJbG9jYWxob3N0MIIB
IjANBgkqhkiG9w0BAQEFAAOCAQ8AMIIBCgKCAQEAs9gq9sygvmREcPNlehzQvBI/
VWFFRAdEmoA94KPc4gZvbHL1x0USgwNVEWBppK+LTwDRfyyJZGNAt4/NIBxfhtPX
NufUNfHQPI6puwhnGqddDD/ZfjXoTdAT5ZMD1lg8/kUNxyDCcF6MsogfP4QCWcXu
WRgBcV9Drq9R6yDxdxIrBs40nT88sxerCyBAgf+hVRUTYxXoBFmdXpIeLsBJGqUd
mKg504ucx6Fkh657zpWd6fGWUv1iKaDMdGtRsd793m3aAJRa8bh1sR3GR1Z1KGwe
0dmZSG2YNbrSMlimsG2MjAzR4ztkj+BhzP9WEZWbw/RtS6yUP1Yc4tYlFF/4VwID
AQABo0IwQDAdBgNVHQ4EFgQUxDkmyJg2Efx+5QA5K8W9ElIBSKEwHwYDVR0jBBgw
FoAUgmEILr0vQC4pGcur9sNGEjGliG8wDQYJKoZIhvcNAQELBQADggEBABtoFECc
CZef5Ofe6YsV/cu7JYbrceo9fp05lwMVRosXOVNbLZ3WK775QLpfgh623840CTZ1
h/GE/GmmdkU8mgSNNhAPHpQWgTfiV6rT801l4JPVxSv+aIenRpm/mOYRlWw0zVT6
Vx6A1EbqwQQq34np5+XUE/NKMNplbBaZB0rwcoYj4OyhnHrupiw9gsElZPjo/E+g
TIm8L3OwkW0jY0zOQm8Fdq2r2XXMFe2ikcFYPsHG2cUBebDvxk2LONzzX41JmcoR
hh769a/LBfsz5+Yhg+XH8RixhVF/2LjzqHcv1BBpSTZL+fXf4LBM8l7BJ1iNfgLV
iEMsn/wqXPD+xHc=
-----END CERTIFICATE-----
Certificate:
    Data:
        Version: 3 (0x2)
        Serial Number: 1 (0x1)
        Signature Algorithm: sha256WithRSAEncryption
        Issuer: C=JP, ST=Hokkaido, L=Shibetsu, O=rootCA, OU=rootCA, CN=Root CA
        Validity
            Not Before: Feb 12 11:58:36 2024 GMT
            Not After : Feb 11 11:58:36 2025 GMT
        Subject: C=JP, ST=Hokkaido, O=interCA, OU=interCA, CN=Inter CA
        Subject Public Key Info:
            Public Key Algorithm: rsaEncryption
                Public-Key: (2048 bit)
                Modulus:
                    00:c4:29:a3:ea:37:4c:db:eb:12:61:28:07:11:f5:
                    cb:ba:7c:b4:36:a7:60:83:07:e5:23:8d:fa:a8:a3:
                    9f:06:4e:ef:f8:8b:09:32:1f:77:00:b6:8d:28:bd:
                    a3:8d:cf:2e:2a:d5:8c:91:82:b9:f7:a8:ae:49:d2:
                    61:20:26:ab:2f:15:32:ee:71:ae:61:81:58:d8:15:
                    06:d7:fc:dc:d8:86:f1:93:ad:6e:ea:0d:86:0b:d9:
                    7e:66:94:c1:12:25:16:5a:ce:60:79:8b:b7:a9:78:
                    90:d1:ab:a1:33:1a:52:8f:b3:3b:d8:d4:16:32:98:
                    a7:0d:c2:c6:ba:b3:74:66:bb:01:da:0e:9f:68:5a:
                    c0:6f:5e:04:f3:ab:ac:58:c7:89:f2:9b:f7:6f:7a:
                    ca:a7:68:d2:a3:92:0f:2c:72:71:71:21:21:32:62:
                    2a:35:f4:37:e9:c2:5c:66:39:31:b3:17:13:9a:01:
                    ab:46:31:74:c3:8b:0c:78:91:e0:58:07:7a:f8:29:
                    83:75:28:e8:20:cf:07:56:6d:7e:58:cb:96:ef:81:
                    4d:88:b5:fe:59:dc:fc:54:b9:93:0a:f8:16:3d:f3:
                    b0:19:5c:69:fe:ce:c6:de:93:a6:5c:08:4d:4a:11:
                    99:88:82:38:cc:70:58:40:d9:3e:28:41:be:dd:1e:
                    bf:53
                Exponent: 65537 (0x10001)
        X509v3 extensions:
            X509v3 Subject Key Identifier: 
                82:61:08:2E:BD:2F:40:2E:29:19:CB:AB:F6:C3:46:12:31:A5:88:6F
            X509v3 Basic Constraints: critical
                CA:TRUE, pathlen:0
            X509v3 Authority Key Identifier: 
                B5:4D:0B:70:D6:D7:1A:1B:42:5C:5C:97:61:87:ED:FC:DD:29:06:15
    Signature Algorithm: sha256WithRSAEncryption
    Signature Value:
        6d:5e:85:0f:c5:e4:b3:e2:e4:97:55:21:d9:2a:9e:0e:20:ca:
        a5:8a:97:03:75:6e:29:8b:2b:86:9d:3c:cc:78:16:a0:b2:93:
        ba:b1:a4:24:52:3e:7b:14:1e:c7:64:04:eb:41:24:bd:63:c8:
        e0:97:67:a5:61:79:0c:50:23:16:b2:ed:98:d7:27:c9:23:69:
        bd:70:3b:fe:03:84:76:ac:bc:ae:e0:ea:76:28:3f:de:ef:32:
        c5:48:fe:9a:0f:a1:17:da:ea:60:72:22:e3:aa:e1:c5:67:83:
        a9:2f:c8:b0:bf:06:78:15:a7:bc:35:3e:2c:e9:2a:c3:00:c4:
        38:8f:ad:2c:4c:57:3b:b8:32:95:86:73:7f:43:26:7a:d9:bd:
        40:e1:8f:3e:db:5c:dd:6b:24:37:f6:df:4c:92:68:7e:0a:20:
        b1:6e:7a:ff:59:59:76:c9:87:da:a1:4b:04:9a:5b:a9:10:5a:
        e6:7f:d8:86:bd:cf:82:06:9d:fa:7f:08:e5:f8:4d:f8:c8:b3:
        fd:7a:9b:0f:37:2c:5d:9d:a0:d6:90:92:4e:80:47:98:da:92:
        e8:a7:86:38:86:3d:99:1a:f9:8c:6f:e0:02:d7:c6:86:35:f4:
        5c:4b:9b:4b:b7:98:92:af:6b:d2:cf:a5:cc:c1:52:70:1b:77:
        39:a2:8f:73
-----BEGIN CERTIFICATE-----
MIIDjzCCAnegAwIBAgIBATANBgkqhkiG9w0BAQsFADBnMQswCQYDVQQGEwJKUDER
MA8GA1UECAwISG9ra2FpZG8xETAPBgNVBAcMCFNoaWJldHN1MQ8wDQYDVQQKDAZy
b290Q0ExDzANBgNVBAsMBnJvb3RDQTEQMA4GA1UEAwwHUm9vdCBDQTAeFw0yNDAy
MTIxMTU4MzZaFw0yNTAyMTExMTU4MzZaMFcxCzAJBgNVBAYTAkpQMREwDwYDVQQI
DAhIb2trYWlkbzEQMA4GA1UECgwHaW50ZXJDQTEQMA4GA1UECwwHaW50ZXJDQTER
MA8GA1UEAwwISW50ZXIgQ0EwggEiMA0GCSqGSIb3DQEBAQUAA4IBDwAwggEKAoIB
AQDEKaPqN0zb6xJhKAcR9cu6fLQ2p2CDB+Ujjfqoo58GTu/4iwkyH3cAto0ovaON
zy4q1YyRgrn3qK5J0mEgJqsvFTLuca5hgVjYFQbX/NzYhvGTrW7qDYYL2X5mlMES
JRZazmB5i7epeJDRq6EzGlKPszvY1BYymKcNwsa6s3RmuwHaDp9oWsBvXgTzq6xY
x4nym/dvesqnaNKjkg8scnFxISEyYio19DfpwlxmOTGzFxOaAatGMXTDiwx4keBY
B3r4KYN1KOggzwdWbX5Yy5bvgU2Itf5Z3PxUuZMK+BY987AZXGn+zsbek6ZcCE1K
EZmIgjjMcFhA2T4oQb7dHr9TAgMBAAGjVjBUMB0GA1UdDgQWBBSCYQguvS9ALikZ
y6v2w0YSMaWIbzASBgNVHRMBAf8ECDAGAQH/AgEAMB8GA1UdIwQYMBaAFLVNC3DW
1xobQlxcl2GH7fzdKQYVMA0GCSqGSIb3DQEBCwUAA4IBAQBtXoUPxeSz4uSXVSHZ
Kp4OIMqlipcDdW4piyuGnTzMeBagspO6saQkUj57FB7HZATrQSS9Y8jgl2elYXkM
UCMWsu2Y1yfJI2m9cDv+A4R2rLyu4Op2KD/e7zLFSP6aD6EX2upgciLjquHFZ4Op
L8iwvwZ4Fae8NT4s6SrDAMQ4j60sTFc7uDKVhnN/QyZ62b1A4Y8+21zdayQ39t9M
kmh+CiCxbnr/WVl2yYfaoUsEmlupEFrmf9iGvc+CBp36fwjl+E34yLP9epsPNyxd
naDWkJJOgEeY2pLop4Y4hj2ZGvmMb+AC18aGNfRcS5tLt5iSr2vSz6XMwVJwG3c5
oo9z
-----END CERTIFICATE-----
