Certificate:
    Data:
        Version: 3 (0x2)
        Serial Number: 2 (0x2)
        Signature Algorithm: sha256WithRSAEncryption
        Issuer: C=JP, ST=Hokkaido, O=interCA, OU=interCA, CN=Inter CA
        Validity
            Not Before: Feb 12 12:32:15 2024 GMT
            Not After : Feb 11 12:32:15 2025 GMT
        Subject: C=JP, ST=Tokyo, O=client, OU=client, CN=test
        Subject Public Key Info:
            Public Key Algorithm: rsaEncryption
                Public-Key: (2048 bit)
                Modulus:
                    00:b3:83:64:97:5e:7d:dc:7d:71:15:7e:96:f3:ee:
                    18:33:cd:f7:8c:f2:7d:d1:88:70:42:7a:0c:fe:1f:
                    ab:75:53:2c:5e:f4:7b:53:68:f4:41:51:25:98:08:
                    c7:7e:71:17:09:17:e1:73:bb:3b:74:7f:1b:a9:8b:
                    8c:67:c0:09:fc:1c:83:0d:11:94:20:39:f5:37:b7:
                    a7:19:46:17:24:9e:95:e8:3d:0a:1f:bb:03:d4:6b:
                    f0:34:df:50:f2:b0:c1:69:28:17:cc:37:6d:a3:9f:
                    4e:7e:e6:54:89:b5:db:1e:c3:5f:a8:65:c7:ca:ba:
                    61:9b:77:f4:f1:52:a0:bb:34:93:88:c3:14:30:e5:
                    83:c9:24:4d:70:17:82:20:4f:11:2d:8d:be:29:9d:
                    1d:d1:01:1d:e6:60:54:07:3e:04:19:a0:cb:4f:c5:
                    2c:2d:af:54:cb:04:31:6f:9e:59:f3:39:be:67:ea:
                    ac:89:76:6d:53:1d:12:e9:d9:d6:01:bc:78:96:93:
                    cc:81:aa:19:b8:4f:d0:3f:1e:08:21:d3:1a:52:05:
                    45:44:99:a6:e7:b8:a2:c3:3b:24:e8:f8:f2:7a:a3:
                    08:44:11:e6:43:b6:b0:3f:ec:79:e1:c2:c5:d0:67:
                    b8:74:2d:c4:3b:df:27:83:ce:3d:9c:85:1c:1e:e8:
                    d2:63
                Exponent: 65537 (0x10001)
        X509v3 extensions:
            X509v3 Subject Key Identifier: 
                14:C5:15:3D:2E:F6:F2:8B:A4:73:E8:43:68:B8:6E:75:CE:24:EE:8E
            X509v3 Authority Key Identifier: 
                82:61:08:2E:BD:2F:40:2E:29:19:CB:AB:F6:C3:46:12:31:A5:88:6F
    Signature Algorithm: sha256WithRSAEncryption
    Signature Value:
        46:0f:05:f1:1d:4a:16:7d:d8:13:01:6d:24:98:1b:4b:8b:d9:
        2e:92:af:9d:dc:91:2e:b1:b3:b5:10:5f:36:5e:d7:ab:b3:6c:
        32:04:cb:f9:c7:11:55:e3:40:7d:87:3e:7c:97:36:09:e8:ea:
        6b:75:7e:d2:c7:26:27:24:ea:8f:63:b2:09:35:a3:03:c2:d2:
        e0:11:b1:33:e9:97:22:a6:c5:93:19:8b:d6:db:d2:88:7b:e5:
        dc:1b:6f:76:05:bc:b3:39:a4:db:58:2d:15:15:dc:f4:fc:4c:
        86:2f:6c:3a:c3:48:a7:ff:a7:d8:fd:f4:3d:37:66:fa:65:9c:
        6a:f2:18:91:18:6c:2f:01:fc:32:80:77:29:4e:6f:04:da:00:
        07:a1:a6:c3:b1:75:0f:2a:02:6e:02:af:23:65:1d:4b:78:e6:
        f8:83:4b:4f:3b:ea:33:ea:f4:13:ce:8a:07:a5:ec:07:b4:1f:
        e6:ce:fe:9e:95:32:98:76:b9:07:a8:5a:3a:4c:90:7f:69:a0:
        44:83:5f:04:4a:1c:b0:5f:f4:6c:98:8e:4d:1b:19:5f:99:c5:
        7a:0b:03:30:bf:85:5f:c8:58:91:3f:28:8e:1a:18:83:d1:99:
        ec:b4:87:e8:e1:32:28:44:d8:05:20:34:24:5b:d8:e0:64:42:
        5e:c6:73:ff
-----BEGIN CERTIFICATE-----
MIIDYjCCAkqgAwIBAgIBAjANBgkqhkiG9w0BAQsFADBXMQswCQYDVQQGEwJKUDER
MA8GA1UECAwISG9ra2FpZG8xEDAOBgNVBAoMB2ludGVyQ0ExEDAOBgNVBAsMB2lu
dGVyQ0ExETAPBgNVBAMMCEludGVyIENBMB4XDTI0MDIxMjEyMzIxNVoXDTI1MDIx
MTEyMzIxNVowTjELMAkGA1UEBhMCSlAxDjAMBgNVBAgMBVRva3lvMQ8wDQYDVQQK
DAZjbGllbnQxDzANBgNVBAsMBmNsaWVudDENMAsGA1UEAwwEdGVzdDCCASIwDQYJ
KoZIhvcNAQEBBQADggEPADCCAQoCggEBALODZJdefdx9cRV+lvPuGDPN94zyfdGI
cEJ6DP4fq3VTLF70e1No9EFRJZgIx35xFwkX4XO7O3R/G6mLjGfACfwcgw0RlCA5
9Te3pxlGFySeleg9Ch+7A9Rr8DTfUPKwwWkoF8w3baOfTn7mVIm12x7DX6hlx8q6
YZt39PFSoLs0k4jDFDDlg8kkTXAXgiBPES2NvimdHdEBHeZgVAc+BBmgy0/FLC2v
VMsEMW+eWfM5vmfqrIl2bVMdEunZ1gG8eJaTzIGqGbhP0D8eCCHTGlIFRUSZpue4
osM7JOj48nqjCEQR5kO2sD/seeHCxdBnuHQtxDvfJ4POPZyFHB7o0mMCAwEAAaNC
MEAwHQYDVR0OBBYEFBTFFT0u9vKLpHPoQ2i4bnXOJO6OMB8GA1UdIwQYMBaAFIJh
CC69L0AuKRnLq/bDRhIxpYhvMA0GCSqGSIb3DQEBCwUAA4IBAQBGDwXxHUoWfdgT
AW0kmBtLi9kukq+d3JEusbO1EF82Xters2wyBMv5xxFV40B9hz58lzYJ6OprdX7S
xyYnJOqPY7IJNaMDwtLgEbEz6ZcipsWTGYvW29KIe+XcG292BbyzOaTbWC0VFdz0
/EyGL2w6w0in/6fY/fQ9N2b6ZZxq8hiRGGwvAfwygHcpTm8E2gAHoabDsXUPKgJu
Aq8jZR1LeOb4g0tPO+oz6vQTzooHpewHtB/mzv6elTKYdrkHqFo6TJB/aaBEg18E
ShywX/RsmI5NGxlfmcV6CwMwv4VfyFiRPyiOGhiD0ZnstIfo4TIoRNgFIDQkW9jg
ZEJexnP/
-----END CERTIFICATE-----
